; Function Attrs: null_pointer_is_valid sspstrong uwtable
define hidden i32 @winreg_dissect_struct_QueryMultipleValue(ptr noundef %0, i32 noundef %1, ptr noundef %2, ptr noundef %3, ptr noundef %4, ptr noundef %5, i32 noundef %6, i32 %7) local_unnamed_addr #0 {
  %9 = getelementptr inbounds nuw i8, ptr %4, i64 64
  %10 = load ptr, ptr %9, align 8
  %11 = getelementptr inbounds nuw i8, ptr %10, i64 96
  %12 = load i32, ptr %11, align 8
  %13 = and i32 %12, 1
  %.not = icmp eq i32 %13, 0
  %14 = getelementptr inbounds nuw i8, ptr %4, i64 25
  %15 = load i8, ptr %14, align 1, !range !6, !noundef !7
  %16 = trunc nuw i8 %15 to i1
  br i1 %.not, label %22, label %17

17:                                               ; preds = %8
  %18 = and i32 %1, 7
  %.not53 = icmp eq i32 %18, 0
  %or.cond = or i1 %.not53, %16
  br i1 %or.cond, label %27, label %19

19:                                               ; preds = %17
  %20 = and i32 %1, -8
  %21 = add i32 %20, 8
  br label %27

22:                                               ; preds = %8
  %23 = and i32 %1, 3
  %.not52 = icmp eq i32 %23, 0
  %or.cond57 = or i1 %.not52, %16
  br i1 %or.cond57, label %27, label %24

24:                                               ; preds = %22
  %25 = and i32 %1, -4
  %26 = add i32 %25, 4
  br label %27

27:                                               ; preds = %22, %24, %17, %19
  %.0 = phi i32 [ %1, %17 ], [ %21, %19 ], [ %1, %22 ], [ %26, %24 ]
  %.not54 = icmp eq ptr %3, null
  br i1 %.not54, label %32, label %28

28:                                               ; preds = %27
  %29 = tail call ptr @proto_tree_add_item(ptr noundef nonnull %3, i32 noundef %6, ptr noundef %0, i32 noundef %.0, i32 noundef -1, i32 noundef 0)
  %30 = load i32, ptr @ett_winreg_QueryMultipleValue, align 4
  %31 = tail call ptr @proto_item_add_subtree(ptr noundef %29, i32 noundef %30)
  br label %32

32:                                               ; preds = %28, %27
  %.050 = phi ptr [ %29, %28 ], [ null, %27 ]
  %.049 = phi ptr [ %31, %28 ], [ null, %27 ]
  %33 = load i32, ptr @hf_winreg_QueryMultipleValue_ve_valuename, align 4
  %34 = tail call i32 @dissect_ndr_embedded_pointer(ptr noundef %0, i32 noundef %.0, ptr noundef %2, ptr noundef %.049, ptr noundef %4, ptr noundef %5, ptr noundef nonnull @winreg_dissect_element_QueryMultipleValue_ve_valuename_, i32 noundef 2, ptr noundef nonnull @.str.255, i32 noundef %33)
  %35 = load i32, ptr @hf_winreg_QueryMultipleValue_ve_valuelen, align 4
  %36 = tail call i32 @PIDL_dissect_uint32(ptr noundef %0, i32 noundef %34, ptr noundef %2, ptr noundef %.049, ptr noundef %4, ptr noundef %5, i32 noundef %35, i32 noundef 0)
  %37 = load i32, ptr @hf_winreg_QueryMultipleValue_ve_valueptr, align 4
  %38 = tail call i32 @PIDL_dissect_uint32(ptr noundef %0, i32 noundef %36, ptr noundef %2, ptr noundef %.049, ptr noundef %4, ptr noundef %5, i32 noundef %37, i32 noundef 0)
  %39 = load i32, ptr @hf_winreg_QueryMultipleValue_ve_type, align 4
  %40 = tail call i32 @misc_dissect_enum_winreg_Type(ptr noundef %0, i32 noundef %38, ptr noundef %2, ptr noundef %.049, ptr noundef %4, ptr noundef %5, i32 noundef %39, ptr noundef null)
  %41 = sub i32 %40, %.0
  tail call void @proto_item_set_len(ptr noundef %.050, i32 noundef %41)
  %42 = load ptr, ptr %9, align 8
  %43 = getelementptr inbounds nuw i8, ptr %42, i64 96
  %44 = load i32, ptr %43, align 8
  %45 = and i32 %44, 1
  %.not55 = icmp eq i32 %45, 0
  br i1 %.not55, label %54, label %46

46:                                               ; preds = %32
  %47 = getelementptr inbounds nuw i8, ptr %4, i64 25
  %48 = load i8, ptr %47, align 1, !range !6, !noundef !7
  %49 = trunc nuw i8 %48 to i1
  %50 = and i32 %40, 7
  %.not56 = icmp eq i32 %50, 0
  %or.cond58 = or i1 %.not56, %49
  br i1 %or.cond58, label %54, label %51

51:                                               ; preds = %46
  %52 = and i32 %40, -8
  %53 = add i32 %52, 8
  br label %54

54:                                               ; preds = %51, %46, %32
  %.1 = phi i32 [ %40, %46 ], [ %53, %51 ], [ %40, %32 ]
  ret i32 %.1
}